target datalayout = "e-m:e-p270:32:32-p271:32:32-p272:64:64-i64:64-i128:128-f80:128-n8:16:32:64-S128"
target triple = "x86_64-pc-linux-gnu"

%"class.llvm::SmallVectorBase" = type { ptr, i32, i32 }
%"class.llvm::InsertPointAnalysis" = type { ptr, %"class.llvm::SmallVector.0" }
%"class.llvm::SmallVector.0" = type { %"class.llvm::SmallVectorImpl.1", %"struct.llvm::SmallVectorStorage.4" }
%"class.llvm::SmallVectorImpl.1" = type { %"class.llvm::SmallVectorTemplateBase.2" }
%"class.llvm::SmallVectorTemplateBase.2" = type { %"class.llvm::SmallVectorTemplateCommon.3" }
%"class.llvm::SmallVectorTemplateCommon.3" = type { %"class.llvm::SmallVectorBase" }
%"struct.llvm::SmallVectorStorage.4" = type { [128 x i8] }
%"class.llvm::SlotIndex" = type { %"class.llvm::PointerIntPair" }
%"class.llvm::PointerIntPair" = type { %"struct.llvm::detail::PunnedPointer" }
%"struct.llvm::detail::PunnedPointer" = type { [8 x i8] }
%"struct.std::pair" = type { %"class.llvm::SlotIndex", %"class.llvm::SlotIndex" }
%"class.llvm::BumpPtrAllocatorImpl" = type { ptr, ptr, %"class.llvm::SmallVector.8", %"class.llvm::SmallVector.13", i64, i64 }
%"class.llvm::SmallVector.8" = type { %"class.llvm::SmallVectorImpl.9", %"struct.llvm::SmallVectorStorage.12" }
%"class.llvm::SmallVectorImpl.9" = type { %"class.llvm::SmallVectorTemplateBase.10" }
%"class.llvm::SmallVectorTemplateBase.10" = type { %"class.llvm::SmallVectorTemplateCommon.11" }
%"class.llvm::SmallVectorTemplateCommon.11" = type { %"class.llvm::SmallVectorBase" }
%"struct.llvm::SmallVectorStorage.12" = type { [32 x i8] }
%"class.llvm::SmallVector.13" = type { %"class.llvm::SmallVectorImpl.14" }
%"class.llvm::SmallVectorImpl.14" = type { %"class.llvm::SmallVectorTemplateBase.15" }
%"class.llvm::SmallVectorTemplateBase.15" = type { %"class.llvm::SmallVectorTemplateCommon.16" }
%"class.llvm::SmallVectorTemplateCommon.16" = type { %"class.llvm::SmallVectorBase" }
%"class.llvm::SmallVector.23" = type { %"class.llvm::SmallVectorImpl.24", %"struct.llvm::SmallVectorStorage.27" }
%"class.llvm::SmallVectorImpl.24" = type { %"class.llvm::SmallVectorTemplateBase.25" }
%"class.llvm::SmallVectorTemplateBase.25" = type { %"class.llvm::SmallVectorTemplateCommon.26" }
%"class.llvm::SmallVectorTemplateCommon.26" = type { %"class.llvm::SmallVectorBase" }
%"struct.llvm::SmallVectorStorage.27" = type { [64 x i8] }
%"class.llvm::SplitAnalysis" = type <{ ptr, ptr, ptr, ptr, ptr, ptr, %"class.llvm::InsertPointAnalysis", %"class.llvm::SmallVector.23", %"class.llvm::SmallVector.102", i32, [4 x i8], %"class.llvm::BitVector", i32, i8, [3 x i8] }>
%"class.llvm::SmallVector.102" = type { %"class.llvm::SmallVectorImpl.103", %"struct.llvm::SmallVectorStorage.106" }
%"class.llvm::SmallVectorImpl.103" = type { %"class.llvm::SmallVectorTemplateBase.104" }
%"class.llvm::SmallVectorTemplateBase.104" = type { %"class.llvm::SmallVectorTemplateCommon.105" }
%"class.llvm::SmallVectorTemplateCommon.105" = type { %"class.llvm::SmallVectorBase" }
%"struct.llvm::SmallVectorStorage.106" = type { [320 x i8] }
%"class.llvm::BitVector" = type <{ %"class.llvm::SmallVector.107", i32, [4 x i8] }>
%"class.llvm::SmallVector.107" = type { %"class.llvm::SmallVectorImpl.108", %"struct.llvm::SmallVectorStorage.111" }
%"class.llvm::SmallVectorImpl.108" = type { %"class.llvm::SmallVectorTemplateBase.109" }
%"class.llvm::SmallVectorTemplateBase.109" = type { %"class.llvm::SmallVectorTemplateCommon.110" }
%"class.llvm::SmallVectorTemplateCommon.110" = type { %"class.llvm::SmallVectorBase" }
%"struct.llvm::SmallVectorStorage.111" = type { [48 x i8] }
%"class.llvm::SplitEditor" = type { ptr, ptr, ptr, ptr, ptr, ptr, ptr, ptr, ptr, ptr, i32, i32, %"class.llvm::RecyclingAllocator", %"class.llvm::IntervalMap", %"class.llvm::DenseMap.327", [2 x %"class.llvm::LiveIntervalCalc"] }
%"class.llvm::RecyclingAllocator" = type { %"class.llvm::Recycler.323", %"class.llvm::BumpPtrAllocatorImpl" }
%"class.llvm::Recycler.323" = type { ptr }
%"class.llvm::IntervalMap" = type { %union.anon.324, i32, i32, ptr }
%union.anon.324 = type { %"class.llvm::IntervalMapImpl::LeafNode" }
%"class.llvm::IntervalMapImpl::LeafNode" = type { %"class.llvm::IntervalMapImpl::NodeBase.base", [4 x i8] }
%"class.llvm::IntervalMapImpl::NodeBase.base" = type { [9 x %"struct.std::pair"], [9 x i32] }
%"class.llvm::DenseMap.327" = type <{ ptr, i32, i32, i32, [4 x i8] }>
%"class.llvm::LiveIntervalCalc" = type { %"class.llvm::LiveRangeCalc" }
%"class.llvm::LiveRangeCalc" = type { ptr, ptr, ptr, ptr, ptr, %"class.llvm::BitVector", %"class.llvm::DenseMap.330", %"class.llvm::IndexedMap.333", %"class.llvm::SmallVector.342" }
%"class.llvm::DenseMap.330" = type <{ ptr, i32, i32, i32, [4 x i8] }>
%"class.llvm::IndexedMap.333" = type <{ %"class.llvm::SmallVector.334", %"struct.std::pair.339", [8 x i8] }>
%"class.llvm::SmallVector.334" = type { %"class.llvm::SmallVectorImpl.335" }
%"class.llvm::SmallVectorImpl.335" = type { %"class.llvm::SmallVectorTemplateBase.336" }
%"class.llvm::SmallVectorTemplateBase.336" = type { %"class.llvm::SmallVectorTemplateCommon.337" }
%"class.llvm::SmallVectorTemplateCommon.337" = type { %"class.llvm::SmallVectorBase" }
%"struct.std::pair.339" = type { ptr, ptr }
%"class.llvm::SmallVector.342" = type { %"class.llvm::SmallVectorImpl.343", %"struct.llvm::SmallVectorStorage.346" }
%"class.llvm::SmallVectorImpl.343" = type { %"class.llvm::SmallVectorTemplateBase.344" }
%"class.llvm::SmallVectorTemplateBase.344" = type { %"class.llvm::SmallVectorTemplateCommon.345" }
%"class.llvm::SmallVectorTemplateCommon.345" = type { %"class.llvm::SmallVectorBase" }
%"struct.llvm::SmallVectorStorage.346" = type { [512 x i8] }

; Function Attrs: mustprogress nounwind uwtable
define linkonce_odr hidden noundef zeroext i1 @_ZNK4llvm20MachineDominatorTree9dominatesEPKNS_15DomTreeNodeBaseINS_17MachineBasicBlockEEES5_(ptr noundef nonnull align 8 dereferenceable(1200) %0, ptr noundef %1, ptr noundef %2) #1 comdat align 2 {
  %4 = alloca ptr, align 8
  %5 = alloca ptr, align 8
  %6 = alloca ptr, align 8
  store ptr %0, ptr %4, align 8
  store ptr %1, ptr %5, align 8
  store ptr %2, ptr %6, align 8
  %7 = load ptr, ptr %4, align 8
  call void @_ZNK4llvm20MachineDominatorTree23applySplitCriticalEdgesEv(ptr noundef nonnull align 8 dereferenceable(1200) %7)
  %8 = load ptr, ptr %5, align 8
  %9 = load ptr, ptr %6, align 8
  %10 = call noundef zeroext i1 @_ZNK4llvm17DominatorTreeBaseINS_17MachineBasicBlockELb0EE9dominatesEPKNS_15DomTreeNodeBaseIS1_EES6_(ptr noundef nonnull align 8 dereferenceable(124) %7, ptr noundef %8, ptr noundef %9)
  ret i1 %10
}

; Function Attrs: mustprogress nounwind uwtable
define linkonce_odr hidden noundef i32 @_ZNSt14numeric_limitsIjE3maxEv() #1 comdat align 2 {
  ret i32 -1
}

; Function Attrs: mustprogress nounwind uwtable
define linkonce_odr hidden noundef ptr @_ZNK4llvm20MachineDominatorTreeixEPNS_17MachineBasicBlockE(ptr noundef nonnull align 8 dereferenceable(1200) %0, ptr noundef %1) #1 comdat align 2 {
  %3 = alloca ptr, align 8
  %4 = alloca ptr, align 8
  store ptr %0, ptr %3, align 8
  store ptr %1, ptr %4, align 8
  %5 = load ptr, ptr %3, align 8
  call void @_ZNK4llvm20MachineDominatorTree23applySplitCriticalEdgesEv(ptr noundef nonnull align 8 dereferenceable(1200) %5)
  %6 = load ptr, ptr %4, align 8
  %7 = call noundef ptr @_ZNK4llvm17DominatorTreeBaseINS_17MachineBasicBlockELb0EE7getNodeEPKS1_(ptr noundef nonnull align 8 dereferenceable(124) %5, ptr noundef %6)
  ret ptr %7
}

; Function Attrs: mustprogress nounwind uwtable
define hidden noundef ptr @_ZN4llvm11SplitEditor20findShallowDominatorEPNS_17MachineBasicBlockES2_(ptr noundef nonnull align 8 dereferenceable(1824) %0, ptr noundef %1, ptr noundef %2) #1 align 2 {
  %4 = alloca ptr, align 8
  %5 = alloca ptr, align 8
  %6 = alloca ptr, align 8
  %7 = alloca ptr, align 8
  %8 = alloca ptr, align 8
  %9 = alloca ptr, align 8
  %10 = alloca ptr, align 8
  %11 = alloca ptr, align 8
  %12 = alloca i32, align 4
  %13 = alloca ptr, align 8
  %14 = alloca i32, align 4
  %15 = alloca ptr, align 8
  store ptr %0, ptr %5, align 8
  store ptr %1, ptr %6, align 8
  store ptr %2, ptr %7, align 8
  %16 = load ptr, ptr %5, align 8
  %17 = load ptr, ptr %6, align 8
  %18 = load ptr, ptr %7, align 8
  %19 = icmp eq ptr %17, %18
  br i1 %19, label %20, label %22

20:                                               ; preds = %3
  %21 = load ptr, ptr %6, align 8
  store ptr %21, ptr %4, align 8
  br label %85

22:                                               ; preds = %3
  %23 = getelementptr inbounds nuw %"class.llvm::SplitEditor", ptr %16, i32 0, i32 0
  %24 = load ptr, ptr %23, align 8
  %25 = getelementptr inbounds nuw %"class.llvm::SplitAnalysis", ptr %24, i32 0, i32 3
  %26 = load ptr, ptr %25, align 8
  store ptr %26, ptr %8, align 8
  %27 = load ptr, ptr %8, align 8
  %28 = load ptr, ptr %7, align 8
  %29 = call noundef ptr @_ZNK4llvm12LoopInfoBaseINS_17MachineBasicBlockENS_11MachineLoopEE10getLoopForEPKS1_(ptr noundef nonnull align 8 dereferenceable(144) %27, ptr noundef %28)
  store ptr %29, ptr %9, align 8
  %30 = getelementptr inbounds nuw %"class.llvm::SplitEditor", ptr %16, i32 0, i32 4
  %31 = load ptr, ptr %30, align 8
  %32 = load ptr, ptr %7, align 8
  %33 = call noundef ptr @_ZNK4llvm20MachineDominatorTreeixEPNS_17MachineBasicBlockE(ptr noundef nonnull align 8 dereferenceable(1200) %31, ptr noundef %32)
  store ptr %33, ptr %10, align 8
  %34 = load ptr, ptr %6, align 8
  store ptr %34, ptr %11, align 8
  %35 = call noundef i32 @_ZNSt14numeric_limitsIjE3maxEv() #2
  store i32 %35, ptr %12, align 4
  br label %36

36:                                               ; preds = %82, %22
  %37 = load ptr, ptr %8, align 8
  %38 = load ptr, ptr %6, align 8
  %39 = call noundef ptr @_ZNK4llvm12LoopInfoBaseINS_17MachineBasicBlockENS_11MachineLoopEE10getLoopForEPKS1_(ptr noundef nonnull align 8 dereferenceable(144) %37, ptr noundef %38)
  store ptr %39, ptr %13, align 8
  %40 = load ptr, ptr %13, align 8
  %41 = icmp ne ptr %40, null
  br i1 %41, label %46, label %42

42:                                               ; preds = %36
  br label %43

43:                                               ; preds = %42
  br label %44

44:                                               ; preds = %43
  %45 = load ptr, ptr %6, align 8
  store ptr %45, ptr %4, align 8
  br label %85

46:                                               ; preds = %36
  %47 = load ptr, ptr %13, align 8
  %48 = load ptr, ptr %9, align 8
  %49 = icmp eq ptr %47, %48
  br i1 %49, label %50, label %54

50:                                               ; preds = %46
  br label %51

51:                                               ; preds = %50
  br label %52

52:                                               ; preds = %51
  %53 = load ptr, ptr %6, align 8
  store ptr %53, ptr %4, align 8
  br label %85

54:                                               ; preds = %46
  %55 = load ptr, ptr %13, align 8
  %56 = call noundef i32 @_ZNK4llvm8LoopBaseINS_17MachineBasicBlockENS_11MachineLoopEE12getLoopDepthEv(ptr noundef nonnull align 8 dereferenceable(152) %55)
  store i32 %56, ptr %14, align 4
  %57 = load i32, ptr %14, align 4
  %58 = load i32, ptr %12, align 4
  %59 = icmp ult i32 %57, %58
  br i1 %59, label %60, label %65

60:                                               ; preds = %54
  %61 = load ptr, ptr %6, align 8
  store ptr %61, ptr %11, align 8
  %62 = load i32, ptr %14, align 4
  store i32 %62, ptr %12, align 4
  br label %63

63:                                               ; preds = %60
  br label %64

64:                                               ; preds = %63
  br label %65

65:                                               ; preds = %64, %54
  %66 = getelementptr inbounds nuw %"class.llvm::SplitEditor", ptr %16, i32 0, i32 4
  %67 = load ptr, ptr %66, align 8
  %68 = load ptr, ptr %13, align 8
  %69 = call noundef ptr @_ZNK4llvm8LoopBaseINS_17MachineBasicBlockENS_11MachineLoopEE9getHeaderEv(ptr noundef nonnull align 8 dereferenceable(152) %68)
  %70 = call noundef ptr @_ZNK4llvm20MachineDominatorTreeixEPNS_17MachineBasicBlockE(ptr noundef nonnull align 8 dereferenceable(1200) %67, ptr noundef %69)
  %71 = call noundef ptr @_ZNK4llvm15DomTreeNodeBaseINS_17MachineBasicBlockEE7getIDomEv(ptr noundef nonnull align 8 dereferenceable(80) %70)
  store ptr %71, ptr %15, align 8
  %72 = load ptr, ptr %15, align 8
  %73 = icmp ne ptr %72, null
  br i1 %73, label %74, label %80

74:                                               ; preds = %65
  %75 = getelementptr inbounds nuw %"class.llvm::SplitEditor", ptr %16, i32 0, i32 4
  %76 = load ptr, ptr %75, align 8
  %77 = load ptr, ptr %10, align 8
  %78 = load ptr, ptr %15, align 8
  %79 = call noundef zeroext i1 @_ZNK4llvm20MachineDominatorTree9dominatesEPKNS_15DomTreeNodeBaseINS_17MachineBasicBlockEEES5_(ptr noundef nonnull align 8 dereferenceable(1200) %76, ptr noundef %77, ptr noundef %78)
  br i1 %79, label %82, label %80

80:                                               ; preds = %74, %65
  %81 = load ptr, ptr %11, align 8
  store ptr %81, ptr %4, align 8
  br label %85

82:                                               ; preds = %74
  %83 = load ptr, ptr %15, align 8
  %84 = call noundef ptr @_ZNK4llvm15DomTreeNodeBaseINS_17MachineBasicBlockEE8getBlockEv(ptr noundef nonnull align 8 dereferenceable(80) %83)
  store ptr %84, ptr %6, align 8
  br label %36, !llvm.loop !13

85:                                               ; preds = %80, %52, %44, %20
  %86 = load ptr, ptr %4, align 8
  ret ptr %86
}