; Function Attrs: mustprogress nounwind uwtable
define hidden noundef ptr @_ZN4llvm11SplitEditor20findShallowDominatorEPNS_17MachineBasicBlockES2_(ptr noundef nonnull readonly align 8 captures(none) dereferenceable(1824) %0, ptr noundef %1, ptr noundef %2) local_unnamed_addr #0 align 2 {
  %4 = icmp eq ptr %1, %2
  br i1 %4, label %.loopexit, label %5

5:                                                ; preds = %3
  %6 = load ptr, ptr %0, align 8
  %7 = getelementptr inbounds nuw i8, ptr %6, i64 24
  %8 = load ptr, ptr %7, align 8
  %9 = tail call noundef ptr @_ZNK4llvm12LoopInfoBaseINS_17MachineBasicBlockENS_11MachineLoopEE10getLoopForEPKS1_(ptr noundef nonnull align 8 dereferenceable(144) %8, ptr noundef %2) #17
  %10 = getelementptr inbounds nuw i8, ptr %0, i64 32
  %11 = load ptr, ptr %10, align 8
  tail call void @_ZNK4llvm20MachineDominatorTree23applySplitCriticalEdgesEv(ptr noundef nonnull align 8 dereferenceable(1200) %11) #17
  %12 = tail call noundef ptr @_ZNK4llvm17DominatorTreeBaseINS_17MachineBasicBlockELb0EE7getNodeEPKS1_(ptr noundef nonnull align 8 dereferenceable(1200) %11, ptr noundef %2) #17
  %13 = tail call noundef ptr @_ZNK4llvm12LoopInfoBaseINS_17MachineBasicBlockENS_11MachineLoopEE10getLoopForEPKS1_(ptr noundef nonnull align 8 dereferenceable(144) %8, ptr noundef %1) #17
  %.not38 = icmp eq ptr %13, null
  %14 = icmp eq ptr %13, %9
  %or.cond39 = or i1 %.not38, %14
  br i1 %or.cond39, label %.loopexit, label %.lr.ph

.lr.ph:                                           ; preds = %5, %25
  %15 = phi ptr [ %27, %25 ], [ %13, %5 ]
  %.02642 = phi ptr [ %26, %25 ], [ %1, %5 ]
  %.02741 = phi ptr [ %spec.select37, %25 ], [ %1, %5 ]
  %.02840 = phi i32 [ %spec.select, %25 ], [ -1, %5 ]
  %16 = tail call noundef i32 @_ZNK4llvm8LoopBaseINS_17MachineBasicBlockENS_11MachineLoopEE12getLoopDepthEv(ptr noundef nonnull align 8 dereferenceable(152) %15) #17
  %17 = icmp ult i32 %16, %.02840
  %spec.select = tail call i32 @llvm.umin.i32(i32 %16, i32 %.02840)
  %spec.select37 = select i1 %17, ptr %.02642, ptr %.02741
  %18 = load ptr, ptr %10, align 8
  %19 = tail call noundef ptr @_ZNK4llvm8LoopBaseINS_17MachineBasicBlockENS_11MachineLoopEE9getHeaderEv(ptr noundef nonnull align 8 dereferenceable(152) %15) #17
  tail call void @_ZNK4llvm20MachineDominatorTree23applySplitCriticalEdgesEv(ptr noundef nonnull align 8 dereferenceable(1200) %18) #17
  %20 = tail call noundef ptr @_ZNK4llvm17DominatorTreeBaseINS_17MachineBasicBlockELb0EE7getNodeEPKS1_(ptr noundef nonnull align 8 dereferenceable(1200) %18, ptr noundef %19) #17
  %21 = tail call noundef ptr @_ZNK4llvm15DomTreeNodeBaseINS_17MachineBasicBlockEE7getIDomEv(ptr noundef nonnull align 8 dereferenceable(80) %20) #17
  %.not36 = icmp eq ptr %21, null
  br i1 %.not36, label %.loopexit, label %22

22:                                               ; preds = %.lr.ph
  %23 = load ptr, ptr %10, align 8
  tail call void @_ZNK4llvm20MachineDominatorTree23applySplitCriticalEdgesEv(ptr noundef nonnull align 8 dereferenceable(1200) %23) #17
  %24 = tail call noundef zeroext i1 @_ZNK4llvm17DominatorTreeBaseINS_17MachineBasicBlockELb0EE9dominatesEPKNS_15DomTreeNodeBaseIS1_EES6_(ptr noundef nonnull align 8 dereferenceable(1200) %23, ptr noundef %12, ptr noundef nonnull %21) #17
  br i1 %24, label %25, label %.loopexit

25:                                               ; preds = %22
  %26 = tail call noundef ptr @_ZNK4llvm15DomTreeNodeBaseINS_17MachineBasicBlockEE8getBlockEv(ptr noundef nonnull align 8 dereferenceable(80) %21) #17
  %27 = tail call noundef ptr @_ZNK4llvm12LoopInfoBaseINS_17MachineBasicBlockENS_11MachineLoopEE10getLoopForEPKS1_(ptr noundef nonnull align 8 dereferenceable(144) %8, ptr noundef %26) #17
  %.not = icmp eq ptr %27, null
  %28 = icmp eq ptr %27, %9
  %or.cond = or i1 %.not, %28
  br i1 %or.cond, label %.loopexit, label %.lr.ph, !llvm.loop !54

.loopexit:                                        ; preds = %25, %22, %.lr.ph, %5, %3
  %.0 = phi ptr [ %1, %3 ], [ %1, %5 ], [ %26, %25 ], [ %spec.select37, %22 ], [ %spec.select37, %.lr.ph ]
  ret ptr %.0
}